target datalayout = "e-m:e-p270:32:32-p271:32:32-p272:64:64-i64:64-i128:128-f80:128-n8:16:32:64-S128"
target triple = "x86_64-pc-linux-gnu"

%struct.H5C_class_t = type { i32, ptr, i32, i32, ptr, ptr, ptr, ptr, ptr, ptr, ptr, ptr, ptr, ptr }
%struct.H5G_node_t = type { %struct.H5C_cache_entry_t, i64, i32, ptr }
%struct.H5C_cache_entry_t = type { ptr, i64, i64, ptr, i8, ptr, i8, i8, i8, i8, i32, i8, i8, i8, i8, i8, i32, ptr, i32, i32, i32, i32, i32, i8, i8, ptr, ptr, ptr, ptr, ptr, ptr, i8, i32, i8, i64, ptr, i64, i64, i32, i8, i32, i32, i8, ptr, ptr, ptr }
%struct.H5G_entry_t = type { i32, %union.H5G_cache_t, i64, i64 }
%union.H5G_cache_t = type { %struct.anon }
%struct.anon = type { i64, i64 }
%struct.H5O_link_t = type { i32, i8, i64, i32, ptr, %union.anon }
%union.anon = type { %struct.H5O_link_ud_t }
%struct.H5O_link_ud_t = type { ptr, i64 }
%struct.H5G_bt_it_it_t = type { ptr, i64, ptr, ptr, ptr }

@H5G_init_g = external global i8, align 1
@H5_libterm_g = external global i8, align 1
@H5AC_SNODE = external constant [1 x %struct.H5C_class_t], align 16
@.str.2 = private unnamed_addr constant [101 x i8] c"generated/home/dtcxzyw/WorkSpace/Projects/compilers/llvm-opt-benchmark/bench/hdf5/hdf5/src/H5Gnode.c\00", align 1
@__func__.H5G__node_iterate = private unnamed_addr constant [18 x i8] c"H5G__node_iterate\00", align 1
@H5E_SYM_g = external global i64, align 8
@H5E_CANTPROTECT_g = external global i64, align 8
@.str.3 = private unnamed_addr constant [33 x i8] c"unable to load symbol table node\00", align 1
@H5E_CANTCONVERT_g = external global i64, align 8
@.str.4 = private unnamed_addr constant [45 x i8] c"unable to convert symbol table entry to link\00", align 1
@H5E_CANTFREE_g = external global i64, align 8
@.str.5 = private unnamed_addr constant [31 x i8] c"unable to release link message\00", align 1
@H5E_CANTNEXT_g = external global i64, align 8
@.str.6 = private unnamed_addr constant [26 x i8] c"iteration operator failed\00", align 1
@H5E_CANTUNPROTECT_g = external global i64, align 8
@.str.7 = private unnamed_addr constant [32 x i8] c"unable to release object header\00", align 1

; Function Attrs: nounwind uwtable
define i32 @H5G__node_iterate(ptr noundef %0, ptr noundef %1, i64 noundef %2, ptr noundef %3, ptr noundef %4) #0 {
  %6 = alloca i32, align 4
  %7 = alloca ptr, align 8
  %8 = alloca ptr, align 8
  %9 = alloca i64, align 8
  %10 = alloca ptr, align 8
  %11 = alloca ptr, align 8
  %12 = alloca ptr, align 8
  %13 = alloca ptr, align 8
  %14 = alloca ptr, align 8
  %15 = alloca i32, align 4
  %16 = alloca i32, align 4
  %17 = alloca i8, align 1
  %18 = alloca %struct.H5O_link_t, align 8
  %19 = alloca i32, align 4
  store ptr %0, ptr %7, align 8, !tbaa !3
  store ptr %1, ptr %8, align 8, !tbaa !8
  store i64 %2, ptr %9, align 8, !tbaa !21
  store ptr %3, ptr %10, align 8, !tbaa !8
  store ptr %4, ptr %11, align 8, !tbaa !8
  call void @llvm.lifetime.start.p0(i64 8, ptr %12) #8
  %20 = load ptr, ptr %11, align 8, !tbaa !8
  store ptr %20, ptr %12, align 8, !tbaa !102
  call void @llvm.lifetime.start.p0(i64 8, ptr %13) #8
  store ptr null, ptr %13, align 8, !tbaa !19
  call void @llvm.lifetime.start.p0(i64 8, ptr %14) #8
  call void @llvm.lifetime.start.p0(i64 4, ptr %15) #8
  call void @llvm.lifetime.start.p0(i64 4, ptr %16) #8
  store i32 0, ptr %16, align 4, !tbaa !13
  call void @llvm.lifetime.start.p0(i64 1, ptr %17) #8
  store i8 0, ptr %17, align 1, !tbaa !9
  %21 = load i8, ptr @H5G_init_g, align 1, !tbaa !9, !range !11, !noundef !12
  %22 = trunc i8 %21 to i1
  br i1 %22, label %27, label %23

23:                                               ; preds = %5
  %24 = load i8, ptr @H5_libterm_g, align 1, !tbaa !9, !range !11, !noundef !12
  %25 = trunc i8 %24 to i1
  %26 = xor i1 %25, true
  br label %27

27:                                               ; preds = %23, %5
  %28 = phi i1 [ true, %5 ], [ %26, %23 ]
  %29 = xor i1 %28, true
  %30 = xor i1 %29, true
  %31 = zext i1 %30 to i32
  %32 = sext i32 %31 to i64
  %33 = call i64 @llvm.expect.i64(i64 %32, i64 1)
  %34 = icmp ne i64 %33, 0
  br i1 %34, label %35, label %199

35:                                               ; preds = %27
  %36 = load ptr, ptr %7, align 8, !tbaa !3
  %37 = load i64, ptr %9, align 8, !tbaa !21
  %38 = load ptr, ptr %7, align 8, !tbaa !3
  %39 = call ptr @H5AC_protect(ptr noundef %36, ptr noundef @H5AC_SNODE, i64 noundef %37, ptr noundef %38, i32 noundef 128)
  store ptr %39, ptr %13, align 8, !tbaa !19
  %40 = icmp eq ptr null, %39
  br i1 %40, label %41, label %60

41:                                               ; preds = %35
  br label %42

42:                                               ; preds = %41
  br label %43

43:                                               ; preds = %42
  br label %44

44:                                               ; preds = %43
  %45 = load i64, ptr @H5E_SYM_g, align 8, !tbaa !21
  %46 = load i64, ptr @H5E_CANTPROTECT_g, align 8, !tbaa !21
  %47 = call i32 (ptr, ptr, i32, i64, i64, ptr, ...) @H5E_printf_stack(ptr noundef @.str.2, ptr noundef @__func__.H5G__node_iterate, i32 noundef 920, i64 noundef %45, i64 noundef %46, ptr noundef @.str.3)
  br label %48

48:                                               ; preds = %44
  br label %49

49:                                               ; preds = %48
  store i8 1, ptr %17, align 1, !tbaa !9
  %50 = load i8, ptr %17, align 1, !tbaa !9, !range !11, !noundef !12
  %51 = trunc i8 %50 to i1
  %52 = zext i1 %51 to i8
  store i8 %52, ptr %17, align 1, !tbaa !9
  br label %53

53:                                               ; preds = %49
  br label %54

54:                                               ; preds = %53
  br label %55

55:                                               ; preds = %54
  store i32 -1, ptr %16, align 4, !tbaa !13
  br label %173

56:                                               ; No predecessors!
  br label %57

57:                                               ; preds = %56
  br label %58

58:                                               ; preds = %57
  br label %59

59:                                               ; preds = %58
  br label %60

60:                                               ; preds = %59, %35
  store i32 0, ptr %15, align 4, !tbaa !13
  %61 = load ptr, ptr %13, align 8, !tbaa !19
  %62 = getelementptr inbounds nuw %struct.H5G_node_t, ptr %61, i32 0, i32 3
  %63 = load ptr, ptr %62, align 8, !tbaa !32
  store ptr %63, ptr %14, align 8, !tbaa !104
  br label %64

64:                                               ; preds = %159, %60
  %65 = load i32, ptr %15, align 4, !tbaa !13
  %66 = load ptr, ptr %13, align 8, !tbaa !19
  %67 = getelementptr inbounds nuw %struct.H5G_node_t, ptr %66, i32 0, i32 2
  %68 = load i32, ptr %67, align 8, !tbaa !48
  %69 = icmp ult i32 %65, %68
  br i1 %69, label %70, label %73

70:                                               ; preds = %64
  %71 = load i32, ptr %16, align 4, !tbaa !13
  %72 = icmp eq i32 %71, 0
  br label %73

73:                                               ; preds = %70, %64
  %74 = phi i1 [ false, %64 ], [ %72, %70 ]
  br i1 %74, label %75, label %162

75:                                               ; preds = %73
  %76 = load ptr, ptr %12, align 8, !tbaa !102
  %77 = getelementptr inbounds nuw %struct.H5G_bt_it_it_t, ptr %76, i32 0, i32 1
  %78 = load i64, ptr %77, align 8, !tbaa !105
  %79 = icmp ugt i64 %78, 0
  br i1 %79, label %80, label %85

80:                                               ; preds = %75
  %81 = load ptr, ptr %12, align 8, !tbaa !102
  %82 = getelementptr inbounds nuw %struct.H5G_bt_it_it_t, ptr %81, i32 0, i32 1
  %83 = load i64, ptr %82, align 8, !tbaa !105
  %84 = add i64 %83, -1
  store i64 %84, ptr %82, align 8, !tbaa !105
  br label %147

85:                                               ; preds = %75
  call void @llvm.lifetime.start.p0(i64 48, ptr %18) #8
  %86 = load ptr, ptr %14, align 8, !tbaa !104
  %87 = load i32, ptr %15, align 4, !tbaa !13
  %88 = zext i32 %87 to i64
  %89 = getelementptr inbounds nuw %struct.H5G_entry_t, ptr %86, i64 %88
  %90 = load ptr, ptr %12, align 8, !tbaa !102
  %91 = getelementptr inbounds nuw %struct.H5G_bt_it_it_t, ptr %90, i32 0, i32 0
  %92 = load ptr, ptr %91, align 8, !tbaa !107
  %93 = call i32 @H5G__ent_to_link(ptr noundef %89, ptr noundef %92, ptr noundef %18)
  %94 = icmp slt i32 %93, 0
  br i1 %94, label %95, label %114

95:                                               ; preds = %85
  br label %96

96:                                               ; preds = %95
  br label %97

97:                                               ; preds = %96
  br label %98

98:                                               ; preds = %97
  %99 = load i64, ptr @H5E_SYM_g, align 8, !tbaa !21
  %100 = load i64, ptr @H5E_CANTCONVERT_g, align 8, !tbaa !21
  %101 = call i32 (ptr, ptr, i32, i64, i64, ptr, ...) @H5E_printf_stack(ptr noundef @.str.2, ptr noundef @__func__.H5G__node_iterate, i32 noundef 934, i64 noundef %99, i64 noundef %100, ptr noundef @.str.4)
  br label %102

102:                                              ; preds = %98
  br label %103

103:                                              ; preds = %102
  store i8 1, ptr %17, align 1, !tbaa !9
  %104 = load i8, ptr %17, align 1, !tbaa !9, !range !11, !noundef !12
  %105 = trunc i8 %104 to i1
  %106 = zext i1 %105 to i8
  store i8 %106, ptr %17, align 1, !tbaa !9
  br label %107

107:                                              ; preds = %103
  br label %108

108:                                              ; preds = %107
  br label %109

109:                                              ; preds = %108
  store i32 -1, ptr %16, align 4, !tbaa !13
  store i32 10, ptr %19, align 4
  br label %144

110:                                              ; No predecessors!
  br label %111

111:                                              ; preds = %110
  br label %112

112:                                              ; preds = %111
  br label %113

113:                                              ; preds = %112
  br label %114

114:                                              ; preds = %113, %85
  %115 = load ptr, ptr %12, align 8, !tbaa !102
  %116 = getelementptr inbounds nuw %struct.H5G_bt_it_it_t, ptr %115, i32 0, i32 2
  %117 = load ptr, ptr %116, align 8, !tbaa !108
  %118 = load ptr, ptr %12, align 8, !tbaa !102
  %119 = getelementptr inbounds nuw %struct.H5G_bt_it_it_t, ptr %118, i32 0, i32 3
  %120 = load ptr, ptr %119, align 8, !tbaa !109
  %121 = call i32 %117(ptr noundef %18, ptr noundef %120)
  store i32 %121, ptr %16, align 4, !tbaa !13
  %122 = call i32 @H5O_msg_reset(i32 noundef 6, ptr noundef %18)
  %123 = icmp slt i32 %122, 0
  br i1 %123, label %124, label %143

124:                                              ; preds = %114
  br label %125

125:                                              ; preds = %124
  br label %126

126:                                              ; preds = %125
  br label %127

127:                                              ; preds = %126
  %128 = load i64, ptr @H5E_SYM_g, align 8, !tbaa !21
  %129 = load i64, ptr @H5E_CANTFREE_g, align 8, !tbaa !21
  %130 = call i32 (ptr, ptr, i32, i64, i64, ptr, ...) @H5E_printf_stack(ptr noundef @.str.2, ptr noundef @__func__.H5G__node_iterate, i32 noundef 941, i64 noundef %128, i64 noundef %129, ptr noundef @.str.5)
  br label %131

131:                                              ; preds = %127
  br label %132

132:                                              ; preds = %131
  store i8 1, ptr %17, align 1, !tbaa !9
  %133 = load i8, ptr %17, align 1, !tbaa !9, !range !11, !noundef !12
  %134 = trunc i8 %133 to i1
  %135 = zext i1 %134 to i8
  store i8 %135, ptr %17, align 1, !tbaa !9
  br label %136

136:                                              ; preds = %132
  br label %137

137:                                              ; preds = %136
  br label %138

138:                                              ; preds = %137
  store i32 -1, ptr %16, align 4, !tbaa !13
  store i32 10, ptr %19, align 4
  br label %144

139:                                              ; No predecessors!
  br label %140

140:                                              ; preds = %139
  br label %141

141:                                              ; preds = %140
  br label %142

142:                                              ; preds = %141
  br label %143

143:                                              ; preds = %142, %114
  store i32 0, ptr %19, align 4
  br label %144

144:                                              ; preds = %138, %109, %143
  call void @llvm.lifetime.end.p0(i64 48, ptr %18) #8
  %145 = load i32, ptr %19, align 4
  switch i32 %145, label %201 [
    i32 0, label %146
    i32 10, label %173
  ]

146:                                              ; preds = %144
  br label %147

147:                                              ; preds = %146, %80
  %148 = load ptr, ptr %12, align 8, !tbaa !102
  %149 = getelementptr inbounds nuw %struct.H5G_bt_it_it_t, ptr %148, i32 0, i32 4
  %150 = load ptr, ptr %149, align 8, !tbaa !110
  %151 = icmp ne ptr %150, null
  br i1 %151, label %152, label %158

152:                                              ; preds = %147
  %153 = load ptr, ptr %12, align 8, !tbaa !102
  %154 = getelementptr inbounds nuw %struct.H5G_bt_it_it_t, ptr %153, i32 0, i32 4
  %155 = load ptr, ptr %154, align 8, !tbaa !110
  %156 = load i64, ptr %155, align 8, !tbaa !21
  %157 = add i64 %156, 1
  store i64 %157, ptr %155, align 8, !tbaa !21
  br label %158

158:                                              ; preds = %152, %147
  br label %159

159:                                              ; preds = %158
  %160 = load i32, ptr %15, align 4, !tbaa !13
  %161 = add i32 %160, 1
  store i32 %161, ptr %15, align 4, !tbaa !13
  br label %64, !llvm.loop !111

162:                                              ; preds = %73
  %163 = load i32, ptr %16, align 4, !tbaa !13
  %164 = icmp slt i32 %163, 0
  br i1 %164, label %165, label %172

165:                                              ; preds = %162
  br label %166

166:                                              ; preds = %165
  %167 = load i64, ptr @H5E_SYM_g, align 8, !tbaa !21
  %168 = load i64, ptr @H5E_CANTNEXT_g, align 8, !tbaa !21
  %169 = call i32 (ptr, ptr, i32, i64, i64, ptr, ...) @H5E_printf_stack(ptr noundef @.str.2, ptr noundef @__func__.H5G__node_iterate, i32 noundef 950, i64 noundef %167, i64 noundef %168, ptr noundef @.str.6)
  br label %170

170:                                              ; preds = %166
  br label %171

171:                                              ; preds = %170
  br label %172

172:                                              ; preds = %171, %162
  br label %173

173:                                              ; preds = %172, %144, %55
  %174 = load ptr, ptr %13, align 8, !tbaa !19
  %175 = icmp ne ptr %174, null
  br i1 %175, label %176, label %198

176:                                              ; preds = %173
  %177 = load ptr, ptr %7, align 8, !tbaa !3
  %178 = load i64, ptr %9, align 8, !tbaa !21
  %179 = load ptr, ptr %13, align 8, !tbaa !19
  %180 = call i32 @H5AC_unprotect(ptr noundef %177, ptr noundef @H5AC_SNODE, i64 noundef %178, ptr noundef %179, i32 noundef 0)
  %181 = icmp slt i32 %180, 0
  br i1 %181, label %182, label %198

182:                                              ; preds = %176
  br label %183

183:                                              ; preds = %182
  br label %184

184:                                              ; preds = %183
  br label %185

185:                                              ; preds = %184
  %186 = load i64, ptr @H5E_SYM_g, align 8, !tbaa !21
  %187 = load i64, ptr @H5E_CANTUNPROTECT_g, align 8, !tbaa !21
  %188 = call i32 (ptr, ptr, i32, i64, i64, ptr, ...) @H5E_printf_stack(ptr noundef @.str.2, ptr noundef @__func__.H5G__node_iterate, i32 noundef 955, i64 noundef %186, i64 noundef %187, ptr noundef @.str.7)
  br label %189

189:                                              ; preds = %185
  br label %190

190:                                              ; preds = %189
  store i8 1, ptr %17, align 1, !tbaa !9
  %191 = load i8, ptr %17, align 1, !tbaa !9, !range !11, !noundef !12
  %192 = trunc i8 %191 to i1
  %193 = zext i1 %192 to i8
  store i8 %193, ptr %17, align 1, !tbaa !9
  br label %194

194:                                              ; preds = %190
  br label %195

195:                                              ; preds = %194
  store i32 -1, ptr %16, align 4, !tbaa !13
  br label %196

196:                                              ; preds = %195
  br label %197

197:                                              ; preds = %196
  br label %198

198:                                              ; preds = %197, %176, %173
  br label %199

199:                                              ; preds = %198, %27
  %200 = load i32, ptr %16, align 4, !tbaa !13
  store i32 %200, ptr %6, align 4
  store i32 1, ptr %19, align 4
  br label %201

201:                                              ; preds = %199, %144
  call void @llvm.lifetime.end.p0(i64 1, ptr %17) #8
  call void @llvm.lifetime.end.p0(i64 4, ptr %16) #8
  call void @llvm.lifetime.end.p0(i64 4, ptr %15) #8
  call void @llvm.lifetime.end.p0(i64 8, ptr %14) #8
  call void @llvm.lifetime.end.p0(i64 8, ptr %13) #8
  call void @llvm.lifetime.end.p0(i64 8, ptr %12) #8
  %202 = load i32, ptr %6, align 4
  ret i32 %202
}