; Function Attrs: nounwind uwtable
define i32 @H5G__node_iterate(ptr noundef %0, ptr noundef readnone captures(none) %1, i64 noundef %2, ptr noundef readnone captures(none) %3, ptr noundef captures(none) %4) local_unnamed_addr #0 {
  %6 = alloca %struct.H5O_link_t, align 8
  %7 = load i8, ptr @H5G_init_g, align 1, !tbaa !3, !range !7, !noundef !8
  %8 = trunc nuw i8 %7 to i1
  %9 = load i8, ptr @H5_libterm_g, align 1, !range !7
  %10 = trunc nuw i8 %9 to i1
  %11 = xor i1 %10, true
  %12 = select i1 %8, i1 true, i1 %11
  br i1 %12, label %13, label %75, !prof !9

13:                                               ; preds = %5
  %14 = tail call ptr @H5AC_protect(ptr noundef %0, ptr noundef nonnull @H5AC_SNODE, i64 noundef %2, ptr noundef %0, i32 noundef 128) #9
  %15 = icmp eq ptr %14, null
  br i1 %15, label %65, label %16

16:                                               ; preds = %13
  %17 = getelementptr inbounds nuw i8, ptr %14, i64 264
  %18 = load ptr, ptr %17, align 8, !tbaa !24
  %19 = getelementptr inbounds nuw i8, ptr %14, i64 256
  %20 = load i32, ptr %19, align 8, !tbaa !33
  %.not47 = icmp eq i32 %20, 0
  br i1 %.not47, label %._crit_edge.thread, label %.lr.ph

.lr.ph:                                           ; preds = %16
  %21 = getelementptr inbounds nuw i8, ptr %4, i64 8
  %22 = getelementptr inbounds nuw i8, ptr %4, i64 16
  %23 = getelementptr inbounds nuw i8, ptr %4, i64 24
  %24 = getelementptr inbounds nuw i8, ptr %4, i64 32
  br label %25

25:                                               ; preds = %.lr.ph, %54
  %indvars.iv = phi i64 [ 0, %.lr.ph ], [ %indvars.iv.next, %54 ]
  %26 = load i64, ptr %21, align 8, !tbaa !79
  %.not = icmp eq i64 %26, 0
  br i1 %.not, label %29, label %27

27:                                               ; preds = %25
  %28 = add i64 %26, -1
  store i64 %28, ptr %21, align 8, !tbaa !79
  br label %49

29:                                               ; preds = %25
  call void @llvm.lifetime.start.p0(i64 48, ptr nonnull %6) #9
  %30 = getelementptr inbounds nuw %struct.H5G_entry_t, ptr %18, i64 %indvars.iv
  %31 = load ptr, ptr %4, align 8, !tbaa !81
  %32 = call i32 @H5G__ent_to_link(ptr noundef %30, ptr noundef %31, ptr noundef nonnull %6) #9
  %33 = icmp slt i32 %32, 0
  br i1 %33, label %34, label %38

34:                                               ; preds = %29
  %35 = load i64, ptr @H5E_SYM_g, align 8, !tbaa !10
  %36 = load i64, ptr @H5E_CANTCONVERT_g, align 8, !tbaa !10
  %37 = call i32 (ptr, ptr, i32, i64, i64, ptr, ...) @H5E_printf_stack(ptr noundef nonnull @.str.2, ptr noundef nonnull @__func__.H5G__node_iterate, i32 noundef 934, i64 noundef %35, i64 noundef %36, ptr noundef nonnull @.str.4) #9
  br label %.thread

38:                                               ; preds = %29
  %39 = load ptr, ptr %22, align 8, !tbaa !82
  %40 = load ptr, ptr %23, align 8, !tbaa !83
  %41 = call i32 %39(ptr noundef nonnull %6, ptr noundef %40) #9
  %42 = call i32 @H5O_msg_reset(i32 noundef 6, ptr noundef nonnull %6) #9
  %43 = icmp slt i32 %42, 0
  br i1 %43, label %44, label %48

44:                                               ; preds = %38
  %45 = load i64, ptr @H5E_SYM_g, align 8, !tbaa !10
  %46 = load i64, ptr @H5E_CANTFREE_g, align 8, !tbaa !10
  %47 = call i32 (ptr, ptr, i32, i64, i64, ptr, ...) @H5E_printf_stack(ptr noundef nonnull @.str.2, ptr noundef nonnull @__func__.H5G__node_iterate, i32 noundef 941, i64 noundef %45, i64 noundef %46, ptr noundef nonnull @.str.5) #9
  br label %.thread

.thread:                                          ; preds = %34, %44
  call void @llvm.lifetime.end.p0(i64 48, ptr nonnull %6) #9
  br label %._crit_edge.thread

48:                                               ; preds = %38
  call void @llvm.lifetime.end.p0(i64 48, ptr nonnull %6) #9
  br label %49

49:                                               ; preds = %48, %27
  %.3 = phi i32 [ 0, %27 ], [ %41, %48 ]
  %50 = load ptr, ptr %24, align 8, !tbaa !84
  %.not36 = icmp eq ptr %50, null
  br i1 %.not36, label %54, label %51

51:                                               ; preds = %49
  %52 = load i64, ptr %50, align 8, !tbaa !10
  %53 = add i64 %52, 1
  store i64 %53, ptr %50, align 8, !tbaa !10
  br label %54

54:                                               ; preds = %49, %51
  %indvars.iv.next = add nuw nsw i64 %indvars.iv, 1
  %55 = load i32, ptr %19, align 8, !tbaa !33
  %56 = zext i32 %55 to i64
  %57 = icmp samesign ult i64 %indvars.iv.next, %56
  %58 = icmp eq i32 %.3, 0
  %59 = select i1 %57, i1 %58, i1 false
  br i1 %59, label %25, label %._crit_edge, !llvm.loop !85

._crit_edge:                                      ; preds = %54
  %60 = icmp slt i32 %.3, 0
  br i1 %60, label %61, label %._crit_edge.thread

61:                                               ; preds = %._crit_edge
  %62 = load i64, ptr @H5E_SYM_g, align 8, !tbaa !10
  %63 = load i64, ptr @H5E_CANTNEXT_g, align 8, !tbaa !10
  %64 = call i32 (ptr, ptr, i32, i64, i64, ptr, ...) @H5E_printf_stack(ptr noundef nonnull @.str.2, ptr noundef nonnull @__func__.H5G__node_iterate, i32 noundef 950, i64 noundef %62, i64 noundef %63, ptr noundef nonnull @.str.6) #9
  br label %._crit_edge.thread

65:                                               ; preds = %13
  %66 = load i64, ptr @H5E_SYM_g, align 8, !tbaa !10
  %67 = load i64, ptr @H5E_CANTPROTECT_g, align 8, !tbaa !10
  %68 = tail call i32 (ptr, ptr, i32, i64, i64, ptr, ...) @H5E_printf_stack(ptr noundef nonnull @.str.2, ptr noundef nonnull @__func__.H5G__node_iterate, i32 noundef 920, i64 noundef %66, i64 noundef %67, ptr noundef nonnull @.str.3) #9
  br label %75

._crit_edge.thread:                               ; preds = %16, %.thread, %._crit_edge, %61
  %.1.ph = phi i32 [ -1, %.thread ], [ %.3, %._crit_edge ], [ %.3, %61 ], [ 0, %16 ]
  %69 = call i32 @H5AC_unprotect(ptr noundef %0, ptr noundef nonnull @H5AC_SNODE, i64 noundef %2, ptr noundef nonnull %14, i32 noundef 0) #9
  %70 = icmp slt i32 %69, 0
  br i1 %70, label %71, label %75

71:                                               ; preds = %._crit_edge.thread
  %72 = load i64, ptr @H5E_SYM_g, align 8, !tbaa !10
  %73 = load i64, ptr @H5E_CANTUNPROTECT_g, align 8, !tbaa !10
  %74 = call i32 (ptr, ptr, i32, i64, i64, ptr, ...) @H5E_printf_stack(ptr noundef nonnull @.str.2, ptr noundef nonnull @__func__.H5G__node_iterate, i32 noundef 955, i64 noundef %72, i64 noundef %73, ptr noundef nonnull @.str.7) #9
  br label %75

75:                                               ; preds = %65, %5, %71, %._crit_edge.thread
  %.031 = phi i32 [ -1, %71 ], [ %.1.ph, %._crit_edge.thread ], [ -1, %65 ], [ 0, %5 ]
  ret i32 %.031
}